target datalayout = "e-m:e-p270:32:32-p271:32:32-p272:64:64-i64:64-i128:128-f80:128-n8:16:32:64-S128"
target triple = "x86_64-pc-linux-gnu"

%struct._generic_SUNLinearSolver = type { ptr, ptr, ptr }
%struct._generic_SUNLinearSolver_Ops = type { ptr, ptr, ptr, ptr, ptr, ptr, ptr, ptr, ptr, ptr, ptr, ptr, ptr, ptr, ptr }
%struct._SUNLinearSolverContent_Dense = type { i64, ptr, i64 }

; Function Attrs: nounwind uwtable
define ptr @SUNLinSol_Dense(ptr noundef %0, ptr noundef %1, ptr noundef %2) #0 {
  %4 = alloca ptr, align 8
  %5 = alloca ptr, align 8
  %6 = alloca ptr, align 8
  %7 = alloca ptr, align 8
  %8 = alloca ptr, align 8
  %9 = alloca ptr, align 8
  %10 = alloca i64, align 8
  store ptr %0, ptr %4, align 8, !tbaa !3
  store ptr %1, ptr %5, align 8, !tbaa !8
  store ptr %2, ptr %6, align 8, !tbaa !10
  call void @llvm.lifetime.start.p0(i64 8, ptr %7) #5
  %11 = load ptr, ptr %6, align 8, !tbaa !10
  store ptr %11, ptr %7, align 8, !tbaa !10
  call void @llvm.lifetime.start.p0(i64 8, ptr %8) #5
  call void @llvm.lifetime.start.p0(i64 8, ptr %9) #5
  call void @llvm.lifetime.start.p0(i64 8, ptr %10) #5
  %12 = load ptr, ptr %5, align 8, !tbaa !8
  %13 = call i64 @SUNDenseMatrix_Rows(ptr noundef %12)
  store i64 %13, ptr %10, align 8, !tbaa !12
  store ptr null, ptr %8, align 8, !tbaa !14
  %14 = load ptr, ptr %6, align 8, !tbaa !10
  %15 = call ptr @SUNLinSolNewEmpty(ptr noundef %14)
  store ptr %15, ptr %8, align 8, !tbaa !14
  %16 = load ptr, ptr %8, align 8, !tbaa !14
  %17 = getelementptr inbounds nuw %struct._generic_SUNLinearSolver, ptr %16, i32 0, i32 1
  %18 = load ptr, ptr %17, align 8, !tbaa !16
  %19 = getelementptr inbounds nuw %struct._generic_SUNLinearSolver_Ops, ptr %18, i32 0, i32 0
  store ptr @SUNLinSolGetType_Dense, ptr %19, align 8, !tbaa !19
  %20 = load ptr, ptr %8, align 8, !tbaa !14
  %21 = getelementptr inbounds nuw %struct._generic_SUNLinearSolver, ptr %20, i32 0, i32 1
  %22 = load ptr, ptr %21, align 8, !tbaa !16
  %23 = getelementptr inbounds nuw %struct._generic_SUNLinearSolver_Ops, ptr %22, i32 0, i32 1
  store ptr @SUNLinSolGetID_Dense, ptr %23, align 8, !tbaa !21
  %24 = load ptr, ptr %8, align 8, !tbaa !14
  %25 = getelementptr inbounds nuw %struct._generic_SUNLinearSolver, ptr %24, i32 0, i32 1
  %26 = load ptr, ptr %25, align 8, !tbaa !16
  %27 = getelementptr inbounds nuw %struct._generic_SUNLinearSolver_Ops, ptr %26, i32 0, i32 6
  store ptr @SUNLinSolInitialize_Dense, ptr %27, align 8, !tbaa !22
  %28 = load ptr, ptr %8, align 8, !tbaa !14
  %29 = getelementptr inbounds nuw %struct._generic_SUNLinearSolver, ptr %28, i32 0, i32 1
  %30 = load ptr, ptr %29, align 8, !tbaa !16
  %31 = getelementptr inbounds nuw %struct._generic_SUNLinearSolver_Ops, ptr %30, i32 0, i32 7
  store ptr @SUNLinSolSetup_Dense, ptr %31, align 8, !tbaa !23
  %32 = load ptr, ptr %8, align 8, !tbaa !14
  %33 = getelementptr inbounds nuw %struct._generic_SUNLinearSolver, ptr %32, i32 0, i32 1
  %34 = load ptr, ptr %33, align 8, !tbaa !16
  %35 = getelementptr inbounds nuw %struct._generic_SUNLinearSolver_Ops, ptr %34, i32 0, i32 8
  store ptr @SUNLinSolSolve_Dense, ptr %35, align 8, !tbaa !24
  %36 = load ptr, ptr %8, align 8, !tbaa !14
  %37 = getelementptr inbounds nuw %struct._generic_SUNLinearSolver, ptr %36, i32 0, i32 1
  %38 = load ptr, ptr %37, align 8, !tbaa !16
  %39 = getelementptr inbounds nuw %struct._generic_SUNLinearSolver_Ops, ptr %38, i32 0, i32 11
  store ptr @SUNLinSolLastFlag_Dense, ptr %39, align 8, !tbaa !25
  %40 = load ptr, ptr %8, align 8, !tbaa !14
  %41 = getelementptr inbounds nuw %struct._generic_SUNLinearSolver, ptr %40, i32 0, i32 1
  %42 = load ptr, ptr %41, align 8, !tbaa !16
  %43 = getelementptr inbounds nuw %struct._generic_SUNLinearSolver_Ops, ptr %42, i32 0, i32 12
  store ptr @SUNLinSolSpace_Dense, ptr %43, align 8, !tbaa !26
  %44 = load ptr, ptr %8, align 8, !tbaa !14
  %45 = getelementptr inbounds nuw %struct._generic_SUNLinearSolver, ptr %44, i32 0, i32 1
  %46 = load ptr, ptr %45, align 8, !tbaa !16
  %47 = getelementptr inbounds nuw %struct._generic_SUNLinearSolver_Ops, ptr %46, i32 0, i32 14
  store ptr @SUNLinSolFree_Dense, ptr %47, align 8, !tbaa !27
  store ptr null, ptr %9, align 8, !tbaa !28
  %48 = call noalias ptr @malloc(i64 noundef 24) #6
  store ptr %48, ptr %9, align 8, !tbaa !28
  %49 = load ptr, ptr %9, align 8, !tbaa !28
  %50 = load ptr, ptr %8, align 8, !tbaa !14
  %51 = getelementptr inbounds nuw %struct._generic_SUNLinearSolver, ptr %50, i32 0, i32 0
  store ptr %49, ptr %51, align 8, !tbaa !30
  %52 = load i64, ptr %10, align 8, !tbaa !12
  %53 = load ptr, ptr %9, align 8, !tbaa !28
  %54 = getelementptr inbounds nuw %struct._SUNLinearSolverContent_Dense, ptr %53, i32 0, i32 0
  store i64 %52, ptr %54, align 8, !tbaa !31
  %55 = load ptr, ptr %9, align 8, !tbaa !28
  %56 = getelementptr inbounds nuw %struct._SUNLinearSolverContent_Dense, ptr %55, i32 0, i32 2
  store i64 0, ptr %56, align 8, !tbaa !34
  %57 = load ptr, ptr %9, align 8, !tbaa !28
  %58 = getelementptr inbounds nuw %struct._SUNLinearSolverContent_Dense, ptr %57, i32 0, i32 1
  store ptr null, ptr %58, align 8, !tbaa !35
  %59 = load i64, ptr %10, align 8, !tbaa !12
  %60 = mul i64 %59, 8
  %61 = call noalias ptr @malloc(i64 noundef %60) #6
  %62 = load ptr, ptr %9, align 8, !tbaa !28
  %63 = getelementptr inbounds nuw %struct._SUNLinearSolverContent_Dense, ptr %62, i32 0, i32 1
  store ptr %61, ptr %63, align 8, !tbaa !35
  %64 = load ptr, ptr %8, align 8, !tbaa !14
  call void @llvm.lifetime.end.p0(i64 8, ptr %10) #5
  call void @llvm.lifetime.end.p0(i64 8, ptr %9) #5
  call void @llvm.lifetime.end.p0(i64 8, ptr %8) #5
  call void @llvm.lifetime.end.p0(i64 8, ptr %7) #5
  ret ptr %64
}