; Function Attrs: nounwind uwtable
define noundef ptr @SUNLinSol_Dense(ptr noundef readnone captures(none) %0, ptr noundef %1, ptr noundef %2) local_unnamed_addr #0 {
  %4 = tail call i64 @SUNDenseMatrix_Rows(ptr noundef %1) #9
  %5 = tail call ptr @SUNLinSolNewEmpty(ptr noundef %2) #9
  %6 = getelementptr inbounds nuw i8, ptr %5, i64 8
  %7 = load ptr, ptr %6, align 8, !tbaa !3
  store ptr @SUNLinSolGetType_Dense, ptr %7, align 8, !tbaa !10
  %8 = getelementptr inbounds nuw i8, ptr %7, i64 8
  store ptr @SUNLinSolGetID_Dense, ptr %8, align 8, !tbaa !12
  %9 = getelementptr inbounds nuw i8, ptr %7, i64 48
  store ptr @SUNLinSolInitialize_Dense, ptr %9, align 8, !tbaa !13
  %10 = getelementptr inbounds nuw i8, ptr %7, i64 56
  store ptr @SUNLinSolSetup_Dense, ptr %10, align 8, !tbaa !14
  %11 = getelementptr inbounds nuw i8, ptr %7, i64 64
  store ptr @SUNLinSolSolve_Dense, ptr %11, align 8, !tbaa !15
  %12 = getelementptr inbounds nuw i8, ptr %7, i64 88
  store ptr @SUNLinSolLastFlag_Dense, ptr %12, align 8, !tbaa !16
  %13 = getelementptr inbounds nuw i8, ptr %7, i64 96
  store ptr @SUNLinSolSpace_Dense, ptr %13, align 8, !tbaa !17
  %14 = getelementptr inbounds nuw i8, ptr %7, i64 112
  store ptr @SUNLinSolFree_Dense, ptr %14, align 8, !tbaa !18
  %15 = tail call noalias dereferenceable_or_null(24) ptr @malloc(i64 noundef 24) #10
  store ptr %15, ptr %5, align 8, !tbaa !19
  store i64 %4, ptr %15, align 8, !tbaa !20
  %16 = getelementptr inbounds nuw i8, ptr %15, i64 8
  %17 = shl i64 %4, 3
  %18 = tail call noalias ptr @malloc(i64 noundef %17) #10
  %19 = getelementptr inbounds nuw i8, ptr %15, i64 16
  store i64 0, ptr %19, align 8
  store ptr %18, ptr %16, align 8, !tbaa !24
  ret ptr %5
}